; Function Attrs: mustprogress uwtable
define noundef range(i64 -60, 1) i64 @_ZN11duckdb_zstd15ZSTD_DCtx_resetEPNS_11ZSTD_DCtx_sENS_19ZSTD_ResetDirectiveE(ptr noundef captures(none) %0, i32 noundef %1) local_unnamed_addr #0 {
  %3 = and i32 %1, -3
  %or.cond = icmp eq i32 %3, 1
  br i1 %or.cond, label %4, label %8

4:                                                ; preds = %2
  %5 = getelementptr inbounds nuw i8, ptr %0, i64 30236
  store i32 0, ptr %5, align 4, !tbaa !129
  %6 = getelementptr inbounds nuw i8, ptr %0, i64 30316
  store i32 0, ptr %6, align 4, !tbaa !34
  %7 = getelementptr inbounds nuw i8, ptr %0, i64 30176
  store i32 1, ptr %7, align 8, !tbaa !36
  br label %8

8:                                                ; preds = %2, %4
  %9 = and i32 %1, -2
  %or.cond3 = icmp eq i32 %9, 2
  br i1 %or.cond3, label %10, label %25

10:                                               ; preds = %8
  %11 = getelementptr inbounds nuw i8, ptr %0, i64 30236
  %12 = load i32, ptr %11, align 4, !tbaa !129
  %.not = icmp eq i32 %12, 0
  br i1 %.not, label %13, label %25

13:                                               ; preds = %10
  %14 = getelementptr inbounds nuw i8, ptr %0, i64 30184
  %15 = load ptr, ptr %14, align 8, !tbaa !3
  %16 = tail call noundef i64 @_ZN11duckdb_zstd14ZSTD_freeDDictEPNS_12ZSTD_DDict_sE(ptr noundef %15)
  %17 = getelementptr inbounds nuw i8, ptr %0, i64 30208
  store i32 0, ptr %17, align 8, !tbaa !33
  tail call void @llvm.memset.p0.i64(ptr noundef nonnull align 8 dereferenceable(16) %14, i8 0, i64 16, i1 false)
  %18 = getelementptr inbounds nuw i8, ptr %0, i64 30104
  store i32 0, ptr %18, align 8, !tbaa !42
  %19 = getelementptr inbounds nuw i8, ptr %0, i64 30264
  store i64 134217729, ptr %19, align 8, !tbaa !43
  %20 = getelementptr inbounds nuw i8, ptr %0, i64 30320
  store i32 0, ptr %20, align 8, !tbaa !44
  %21 = getelementptr inbounds nuw i8, ptr %0, i64 30108
  store i32 0, ptr %21, align 4, !tbaa !45
  %22 = getelementptr inbounds nuw i8, ptr %0, i64 30224
  store i32 0, ptr %22, align 8, !tbaa !46
  %23 = getelementptr inbounds nuw i8, ptr %0, i64 30228
  store i32 0, ptr %23, align 4, !tbaa !47
  %24 = getelementptr inbounds nuw i8, ptr %0, i64 30232
  store i32 0, ptr %24, align 8, !tbaa !48
  br label %25

25:                                               ; preds = %13, %8, %10
  %.0 = phi i64 [ -60, %10 ], [ 0, %8 ], [ 0, %13 ]
  ret i64 %.0
}